; Function Attrs: mustprogress uwtable
define noundef i32 @_ZNK6casadi7Densify7eval_sxEPPKNS_6SXElemEPPS1_PxS5_(ptr nocapture noundef nonnull readonly align 8 dereferenceable(64) %0, ptr nocapture noundef readonly %1, ptr nocapture noundef readonly %2, ptr nocapture readnone %3, ptr nocapture readnone %4) unnamed_addr #3 align 2 {
  %6 = getelementptr inbounds i8, ptr %0, i64 32
  %7 = getelementptr inbounds i8, ptr %0, i64 40
  %8 = load ptr, ptr %7, align 8
  %9 = load ptr, ptr %6, align 8
  %.not.i.i.i.not.i = icmp eq ptr %8, %9
  br i1 %.not.i.i.i.not.i, label %10, label %_ZNK6casadi7Densify8eval_genINS_6SXElemEEEiPPKT_PPS3_PxS7_.exit

10:                                               ; preds = %5
  tail call void (ptr, ...) @_ZSt24__throw_out_of_range_fmtPKcz(ptr noundef nonnull @.str.10, i64 noundef 0, i64 noundef 0) #17
  unreachable

_ZNK6casadi7Densify8eval_genINS_6SXElemEEEiPPKT_PPS3_PxS7_.exit: ; preds = %5
  %11 = load ptr, ptr %1, align 8
  %12 = tail call noundef nonnull align 8 dereferenceable(8) ptr @_ZNK6casadi2MX8sparsityEv(ptr noundef nonnull align 8 dereferenceable(8) %9)
  %13 = tail call noundef ptr @_ZNK6casadi8SparsitycvPKxEv(ptr noundef nonnull align 8 dereferenceable(8) %12)
  %14 = load ptr, ptr %2, align 8
  tail call void @_ZN6casadi14casadi_densifyINS_6SXElemES1_EEvPKT_PKxPT0_x(ptr noundef %11, ptr noundef %13, ptr noundef %14, i64 noundef 0)
  ret i32 0
}